target datalayout = "e-m:e-p270:32:32-p271:32:32-p272:64:64-i64:64-i128:128-f80:128-n8:16:32:64-S128"
target triple = "x86_64-unknown-linux-gnu"

%class.b3Vector3 = type { %union.anon.1 }
%union.anon.1 = type { [4 x float] }
%struct.b3RigidBodyData = type { %class.b3Vector3, %class.b3Quaternion, %class.b3Vector3, %class.b3Vector3, i32, float, float, float }
%class.b3Quaternion = type { %class.b3QuadWord }
%class.b3QuadWord = type { %union.anon.3 }
%union.anon.3 = type { [4 x float] }
%struct.b3Collidable = type { %union.anon.5, %union.anon.6, i32, %union.anon.7 }
%union.anon.5 = type { i32 }
%union.anon.6 = type { float }
%union.anon.7 = type { i32 }
%struct.b3ConvexPolyhedronData = type { %class.b3Vector3, %class.b3Vector3, %class.b3Vector3, %class.b3Vector3, float, i32, i32, i32, i32, i32, i32, i32 }
%class.b3AlignedObjectArray.27 = type <{ %class.b3AlignedAllocator.28, [3 x i8], i32, i32, [4 x i8], ptr, i8, [7 x i8] }>
%class.b3AlignedAllocator.28 = type { i8 }
%class.b3AlignedObjectArray.31 = type <{ %class.b3AlignedAllocator.32, [3 x i8], i32, i32, [4 x i8], ptr, i8, [7 x i8] }>
%class.b3AlignedAllocator.32 = type { i8 }
%class.b3AlignedObjectArray.39 = type <{ %class.b3AlignedAllocator.40, [3 x i8], i32, i32, [4 x i8], ptr, i8, [7 x i8] }>
%class.b3AlignedAllocator.40 = type { i8 }

; Function Attrs: mustprogress nounwind uwtable
define linkonce_odr dso_local noundef nonnull align 16 dereferenceable(96) ptr @_ZNK20b3AlignedObjectArrayI22b3ConvexPolyhedronDataEixEi(ptr noundef nonnull align 8 dereferenceable(25) %this, i32 noundef %n) #3 comdat align 2 {
entry:
  %this.addr = alloca ptr, align 8
  %n.addr = alloca i32, align 4
  store ptr %this, ptr %this.addr, align 8
  store i32 %n, ptr %n.addr, align 4
  %this1 = load ptr, ptr %this.addr, align 8
  %m_data = getelementptr inbounds %class.b3AlignedObjectArray.31, ptr %this1, i32 0, i32 5
  %0 = load ptr, ptr %m_data, align 8
  %1 = load i32, ptr %n.addr, align 4
  %idxprom = sext i32 %1 to i64
  %arrayidx = getelementptr inbounds %struct.b3ConvexPolyhedronData, ptr %0, i64 %idxprom
  ret ptr %arrayidx
}

; Function Attrs: mustprogress nounwind uwtable
define linkonce_odr dso_local noundef nonnull align 4 dereferenceable(16) ptr @_ZNK20b3AlignedObjectArrayI12b3CollidableEixEi(ptr noundef nonnull align 8 dereferenceable(25) %this, i32 noundef %n) #3 comdat align 2 {
entry:
  %this.addr = alloca ptr, align 8
  %n.addr = alloca i32, align 4
  store ptr %this, ptr %this.addr, align 8
  store i32 %n, ptr %n.addr, align 4
  %this1 = load ptr, ptr %this.addr, align 8
  %m_data = getelementptr inbounds %class.b3AlignedObjectArray.27, ptr %this1, i32 0, i32 5
  %0 = load ptr, ptr %m_data, align 8
  %1 = load i32, ptr %n.addr, align 4
  %idxprom = sext i32 %1 to i64
  %arrayidx = getelementptr inbounds %struct.b3Collidable, ptr %0, i64 %idxprom
  ret ptr %arrayidx
}

; Function Attrs: mustprogress nounwind uwtable
define linkonce_odr dso_local noundef nonnull align 16 dereferenceable(80) ptr @_ZNK20b3AlignedObjectArrayI15b3RigidBodyDataEixEi(ptr noundef nonnull align 8 dereferenceable(25) %this, i32 noundef %n) #3 comdat align 2 {
entry:
  %this.addr = alloca ptr, align 8
  %n.addr = alloca i32, align 4
  store ptr %this, ptr %this.addr, align 8
  store i32 %n, ptr %n.addr, align 4
  %this1 = load ptr, ptr %this.addr, align 8
  %m_data = getelementptr inbounds %class.b3AlignedObjectArray.39, ptr %this1, i32 0, i32 5
  %0 = load ptr, ptr %m_data, align 8
  %1 = load i32, ptr %n.addr, align 4
  %idxprom = sext i32 %1 to i64
  %arrayidx = getelementptr inbounds %struct.b3RigidBodyData, ptr %0, i64 %idxprom
  ret ptr %arrayidx
}

; Function Attrs: mustprogress uwtable
define dso_local noundef i32 @_Z27computeContactConvexConvex2iiiiiRK20b3AlignedObjectArrayI15b3RigidBodyDataERKS_I12b3CollidableERKS_I22b3ConvexPolyhedronDataERKS_I9b3Vector3ESF_RKS_IiERKS_I9b3GpuFaceERS_I10b3Contact4ERiiRKSO_(i32 noundef %pairIndex, i32 noundef %bodyIndexA, i32 noundef %bodyIndexB, i32 noundef %collidableIndexA, i32 noundef %collidableIndexB, ptr noundef nonnull align 8 dereferenceable(25) %rigidBodies, ptr noundef nonnull align 8 dereferenceable(25) %collidables, ptr noundef nonnull align 8 dereferenceable(25) %convexShapes, ptr noundef nonnull align 8 dereferenceable(25) %convexVertices, ptr noundef nonnull align 8 dereferenceable(25) %uniqueEdges, ptr noundef nonnull align 8 dereferenceable(25) %convexIndices, ptr noundef nonnull align 8 dereferenceable(25) %faces, ptr noundef nonnull align 8 dereferenceable(25) %globalContactsOut, ptr noundef nonnull align 4 dereferenceable(4) %nGlobalContactsOut, i32 noundef %maxContactCapacity, ptr noundef nonnull align 8 dereferenceable(25) %oldContacts) #0 {
entry:
  %pairIndex.addr = alloca i32, align 4
  %bodyIndexA.addr = alloca i32, align 4
  %bodyIndexB.addr = alloca i32, align 4
  %collidableIndexA.addr = alloca i32, align 4
  %collidableIndexB.addr = alloca i32, align 4
  %rigidBodies.addr = alloca ptr, align 8
  %collidables.addr = alloca ptr, align 8
  %convexShapes.addr = alloca ptr, align 8
  %convexVertices.addr = alloca ptr, align 8
  %uniqueEdges.addr = alloca ptr, align 8
  %convexIndices.addr = alloca ptr, align 8
  %faces.addr = alloca ptr, align 8
  %globalContactsOut.addr = alloca ptr, align 8
  %nGlobalContactsOut.addr = alloca ptr, align 8
  %maxContactCapacity.addr = alloca i32, align 4
  %oldContacts.addr = alloca ptr, align 8
  %contactIndex = alloca i32, align 4
  %posA = alloca %class.b3Vector3, align 16
  %ornA = alloca %class.b3Quaternion, align 16
  %posB = alloca %class.b3Vector3, align 16
  %ornB = alloca %class.b3Quaternion, align 16
  %hullA = alloca %struct.b3ConvexPolyhedronData, align 16
  %hullB = alloca %struct.b3ConvexPolyhedronData, align 16
  %sepNormalWorldSpace = alloca %class.b3Vector3, align 16
  %colA = alloca %struct.b3Collidable, align 4
  %colB = alloca %struct.b3Collidable, align 4
  %foundSepAxis = alloca i8, align 1
  store i32 %pairIndex, ptr %pairIndex.addr, align 4
  store i32 %bodyIndexA, ptr %bodyIndexA.addr, align 4
  store i32 %bodyIndexB, ptr %bodyIndexB.addr, align 4
  store i32 %collidableIndexA, ptr %collidableIndexA.addr, align 4
  store i32 %collidableIndexB, ptr %collidableIndexB.addr, align 4
  store ptr %rigidBodies, ptr %rigidBodies.addr, align 8
  store ptr %collidables, ptr %collidables.addr, align 8
  store ptr %convexShapes, ptr %convexShapes.addr, align 8
  store ptr %convexVertices, ptr %convexVertices.addr, align 8
  store ptr %uniqueEdges, ptr %uniqueEdges.addr, align 8
  store ptr %convexIndices, ptr %convexIndices.addr, align 8
  store ptr %faces, ptr %faces.addr, align 8
  store ptr %globalContactsOut, ptr %globalContactsOut.addr, align 8
  store ptr %nGlobalContactsOut, ptr %nGlobalContactsOut.addr, align 8
  store i32 %maxContactCapacity, ptr %maxContactCapacity.addr, align 4
  store ptr %oldContacts, ptr %oldContacts.addr, align 8
  store i32 -1, ptr %contactIndex, align 4
  %0 = load ptr, ptr %rigidBodies.addr, align 8
  %1 = load i32, ptr %bodyIndexA.addr, align 4
  %call = call noundef nonnull align 16 dereferenceable(80) ptr @_ZNK20b3AlignedObjectArrayI15b3RigidBodyDataEixEi(ptr noundef nonnull align 8 dereferenceable(25) %0, i32 noundef %1)
  %m_pos = getelementptr inbounds %struct.b3RigidBodyData, ptr %call, i32 0, i32 0
  call void @llvm.memcpy.p0.p0.i64(ptr align 16 %posA, ptr align 16 %m_pos, i64 16, i1 false)
  %2 = load ptr, ptr %rigidBodies.addr, align 8
  %3 = load i32, ptr %bodyIndexA.addr, align 4
  %call1 = call noundef nonnull align 16 dereferenceable(80) ptr @_ZNK20b3AlignedObjectArrayI15b3RigidBodyDataEixEi(ptr noundef nonnull align 8 dereferenceable(25) %2, i32 noundef %3)
  %m_quat = getelementptr inbounds %struct.b3RigidBodyData, ptr %call1, i32 0, i32 1
  call void @llvm.memcpy.p0.p0.i64(ptr align 16 %ornA, ptr align 16 %m_quat, i64 16, i1 false)
  %4 = load ptr, ptr %rigidBodies.addr, align 8
  %5 = load i32, ptr %bodyIndexB.addr, align 4
  %call2 = call noundef nonnull align 16 dereferenceable(80) ptr @_ZNK20b3AlignedObjectArrayI15b3RigidBodyDataEixEi(ptr noundef nonnull align 8 dereferenceable(25) %4, i32 noundef %5)
  %m_pos3 = getelementptr inbounds %struct.b3RigidBodyData, ptr %call2, i32 0, i32 0
  call void @llvm.memcpy.p0.p0.i64(ptr align 16 %posB, ptr align 16 %m_pos3, i64 16, i1 false)
  %6 = load ptr, ptr %rigidBodies.addr, align 8
  %7 = load i32, ptr %bodyIndexB.addr, align 4
  %call4 = call noundef nonnull align 16 dereferenceable(80) ptr @_ZNK20b3AlignedObjectArrayI15b3RigidBodyDataEixEi(ptr noundef nonnull align 8 dereferenceable(25) %6, i32 noundef %7)
  %m_quat5 = getelementptr inbounds %struct.b3RigidBodyData, ptr %call4, i32 0, i32 1
  call void @llvm.memcpy.p0.p0.i64(ptr align 16 %ornB, ptr align 16 %m_quat5, i64 16, i1 false)
  %8 = load ptr, ptr %collidables.addr, align 8
  %9 = load i32, ptr %collidableIndexA.addr, align 4
  %call6 = call noundef nonnull align 4 dereferenceable(16) ptr @_ZNK20b3AlignedObjectArrayI12b3CollidableEixEi(ptr noundef nonnull align 8 dereferenceable(25) %8, i32 noundef %9)
  call void @llvm.memcpy.p0.p0.i64(ptr align 4 %colA, ptr align 4 %call6, i64 16, i1 false)
  %10 = load ptr, ptr %convexShapes.addr, align 8
  %11 = getelementptr inbounds %struct.b3Collidable, ptr %colA, i32 0, i32 3
  %12 = load i32, ptr %11, align 4
  %call7 = call noundef nonnull align 16 dereferenceable(96) ptr @_ZNK20b3AlignedObjectArrayI22b3ConvexPolyhedronDataEixEi(ptr noundef nonnull align 8 dereferenceable(25) %10, i32 noundef %12)
  call void @llvm.memcpy.p0.p0.i64(ptr align 16 %hullA, ptr align 16 %call7, i64 96, i1 false)
  %13 = load ptr, ptr %collidables.addr, align 8
  %14 = load i32, ptr %collidableIndexB.addr, align 4
  %call8 = call noundef nonnull align 4 dereferenceable(16) ptr @_ZNK20b3AlignedObjectArrayI12b3CollidableEixEi(ptr noundef nonnull align 8 dereferenceable(25) %13, i32 noundef %14)
  call void @llvm.memcpy.p0.p0.i64(ptr align 4 %colB, ptr align 4 %call8, i64 16, i1 false)
  %15 = load ptr, ptr %convexShapes.addr, align 8
  %16 = getelementptr inbounds %struct.b3Collidable, ptr %colB, i32 0, i32 3
  %17 = load i32, ptr %16, align 4
  %call9 = call noundef nonnull align 16 dereferenceable(96) ptr @_ZNK20b3AlignedObjectArrayI22b3ConvexPolyhedronDataEixEi(ptr noundef nonnull align 8 dereferenceable(25) %15, i32 noundef %17)
  call void @llvm.memcpy.p0.p0.i64(ptr align 16 %hullB, ptr align 16 %call9, i64 96, i1 false)
  %18 = load ptr, ptr %convexVertices.addr, align 8
  %19 = load ptr, ptr %uniqueEdges.addr, align 8
  %20 = load ptr, ptr %faces.addr, align 8
  %21 = load ptr, ptr %convexIndices.addr, align 8
  %22 = load ptr, ptr %convexVertices.addr, align 8
  %23 = load ptr, ptr %uniqueEdges.addr, align 8
  %24 = load ptr, ptr %faces.addr, align 8
  %25 = load ptr, ptr %convexIndices.addr, align 8
  %call10 = call noundef zeroext i1 @_ZL18findSeparatingAxisRK22b3ConvexPolyhedronDataS1_RK9b3Vector3RK12b3QuaternionS4_S7_RK20b3AlignedObjectArrayIS2_ESB_RKS8_I9b3GpuFaceERKS8_IiESB_SB_SF_SI_RS2_(ptr noundef nonnull align 16 dereferenceable(96) %hullA, ptr noundef nonnull align 16 dereferenceable(96) %hullB, ptr noundef nonnull align 16 dereferenceable(16) %posA, ptr noundef nonnull align 16 dereferenceable(16) %ornA, ptr noundef nonnull align 16 dereferenceable(16) %posB, ptr noundef nonnull align 16 dereferenceable(16) %ornB, ptr noundef nonnull align 8 dereferenceable(25) %18, ptr noundef nonnull align 8 dereferenceable(25) %19, ptr noundef nonnull align 8 dereferenceable(25) %20, ptr noundef nonnull align 8 dereferenceable(25) %21, ptr noundef nonnull align 8 dereferenceable(25) %22, ptr noundef nonnull align 8 dereferenceable(25) %23, ptr noundef nonnull align 8 dereferenceable(25) %24, ptr noundef nonnull align 8 dereferenceable(25) %25, ptr noundef nonnull align 16 dereferenceable(16) %sepNormalWorldSpace)
  %frombool = zext i1 %call10 to i8
  store i8 %frombool, ptr %foundSepAxis, align 1
  %26 = load i8, ptr %foundSepAxis, align 1
  %tobool = trunc i8 %26 to i1
  br i1 %tobool, label %if.then, label %if.end

if.then:                                          ; preds = %entry
  %27 = load i32, ptr %bodyIndexA.addr, align 4
  %28 = load i32, ptr %bodyIndexB.addr, align 4
  %29 = load i32, ptr %collidableIndexA.addr, align 4
  %30 = load i32, ptr %collidableIndexB.addr, align 4
  %31 = load ptr, ptr %rigidBodies.addr, align 8
  %32 = load ptr, ptr %globalContactsOut.addr, align 8
  %33 = load ptr, ptr %nGlobalContactsOut.addr, align 8
  %34 = load ptr, ptr %convexShapes.addr, align 8
  %35 = load ptr, ptr %convexShapes.addr, align 8
  %36 = load ptr, ptr %convexVertices.addr, align 8
  %37 = load ptr, ptr %uniqueEdges.addr, align 8
  %38 = load ptr, ptr %faces.addr, align 8
  %39 = load ptr, ptr %convexIndices.addr, align 8
  %40 = load ptr, ptr %convexVertices.addr, align 8
  %41 = load ptr, ptr %uniqueEdges.addr, align 8
  %42 = load ptr, ptr %faces.addr, align 8
  %43 = load ptr, ptr %convexIndices.addr, align 8
  %44 = load ptr, ptr %collidables.addr, align 8
  %45 = load ptr, ptr %collidables.addr, align 8
  %46 = load i32, ptr %maxContactCapacity.addr, align 4
  %call11 = call noundef i32 @_Z18clipHullHullSingleiiRK9b3Vector3RK12b3QuaternionS1_S4_iiPK20b3AlignedObjectArrayI15b3RigidBodyDataEPS5_I10b3Contact4ERiRKS5_I22b3ConvexPolyhedronDataESH_RKS5_IS_ESK_RKS5_I9b3GpuFaceERKS5_IiESK_SK_SO_SR_RKS5_I12b3CollidableESV_S1_i(i32 noundef %27, i32 noundef %28, ptr noundef nonnull align 16 dereferenceable(16) %posA, ptr noundef nonnull align 16 dereferenceable(16) %ornA, ptr noundef nonnull align 16 dereferenceable(16) %posB, ptr noundef nonnull align 16 dereferenceable(16) %ornB, i32 noundef %29, i32 noundef %30, ptr noundef %31, ptr noundef %32, ptr noundef nonnull align 4 dereferenceable(4) %33, ptr noundef nonnull align 8 dereferenceable(25) %34, ptr noundef nonnull align 8 dereferenceable(25) %35, ptr noundef nonnull align 8 dereferenceable(25) %36, ptr noundef nonnull align 8 dereferenceable(25) %37, ptr noundef nonnull align 8 dereferenceable(25) %38, ptr noundef nonnull align 8 dereferenceable(25) %39, ptr noundef nonnull align 8 dereferenceable(25) %40, ptr noundef nonnull align 8 dereferenceable(25) %41, ptr noundef nonnull align 8 dereferenceable(25) %42, ptr noundef nonnull align 8 dereferenceable(25) %43, ptr noundef nonnull align 8 dereferenceable(25) %44, ptr noundef nonnull align 8 dereferenceable(25) %45, ptr noundef nonnull align 16 dereferenceable(16) %sepNormalWorldSpace, i32 noundef %46)
  store i32 %call11, ptr %contactIndex, align 4
  br label %if.end

if.end:                                           ; preds = %if.then, %entry
  %47 = load i32, ptr %contactIndex, align 4
  ret i32 %47
}