; Function Attrs: mustprogress uwtable
define dso_local noundef i32 @_Z27computeContactConvexConvex2iiiiiRK20b3AlignedObjectArrayI15b3RigidBodyDataERKS_I12b3CollidableERKS_I22b3ConvexPolyhedronDataERKS_I9b3Vector3ESF_RKS_IiERKS_I9b3GpuFaceERS_I10b3Contact4ERiiRKSO_(i32 noundef %pairIndex, i32 noundef %bodyIndexA, i32 noundef %bodyIndexB, i32 noundef %collidableIndexA, i32 noundef %collidableIndexB, ptr nocapture noundef nonnull readonly align 8 dereferenceable(25) %rigidBodies, ptr nocapture noundef nonnull readonly align 8 dereferenceable(25) %collidables, ptr nocapture noundef nonnull readonly align 8 dereferenceable(25) %convexShapes, ptr noundef nonnull align 8 dereferenceable(25) %convexVertices, ptr nocapture noundef nonnull readonly align 8 dereferenceable(25) %uniqueEdges, ptr nocapture noundef nonnull readonly align 8 dereferenceable(25) %convexIndices, ptr nocapture noundef nonnull readonly align 8 dereferenceable(25) %faces, ptr noundef nonnull align 8 dereferenceable(25) %globalContactsOut, ptr nocapture noundef nonnull align 4 dereferenceable(4) %nGlobalContactsOut, i32 noundef %maxContactCapacity, ptr nocapture noundef nonnull readnone align 8 dereferenceable(25) %oldContacts) local_unnamed_addr #7 {
entry:
  %posA = alloca %class.b3Vector3, align 16
  %ornA = alloca %class.b3Quaternion, align 16
  %posB = alloca %class.b3Vector3, align 16
  %ornB = alloca %class.b3Quaternion, align 16
  %hullA = alloca %struct.b3ConvexPolyhedronData, align 16
  %hullB = alloca %struct.b3ConvexPolyhedronData, align 16
  %sepNormalWorldSpace = alloca %class.b3Vector3, align 16
  %m_data.i = getelementptr inbounds i8, ptr %rigidBodies, i64 16
  %0 = load ptr, ptr %m_data.i, align 8
  %idxprom.i = sext i32 %bodyIndexA to i64
  %arrayidx.i = getelementptr inbounds %struct.b3RigidBodyData, ptr %0, i64 %idxprom.i
  call void @llvm.memcpy.p0.p0.i64(ptr noundef nonnull align 16 dereferenceable(16) %posA, ptr noundef nonnull align 16 dereferenceable(16) %arrayidx.i, i64 16, i1 false)
  %m_quat = getelementptr inbounds i8, ptr %arrayidx.i, i64 16
  call void @llvm.memcpy.p0.p0.i64(ptr noundef nonnull align 16 dereferenceable(16) %ornA, ptr noundef nonnull align 16 dereferenceable(16) %m_quat, i64 16, i1 false)
  %idxprom.i33 = sext i32 %bodyIndexB to i64
  %arrayidx.i34 = getelementptr inbounds %struct.b3RigidBodyData, ptr %0, i64 %idxprom.i33
  call void @llvm.memcpy.p0.p0.i64(ptr noundef nonnull align 16 dereferenceable(16) %posB, ptr noundef nonnull align 16 dereferenceable(16) %arrayidx.i34, i64 16, i1 false)
  %m_quat5 = getelementptr inbounds i8, ptr %arrayidx.i34, i64 16
  call void @llvm.memcpy.p0.p0.i64(ptr noundef nonnull align 16 dereferenceable(16) %ornB, ptr noundef nonnull align 16 dereferenceable(16) %m_quat5, i64 16, i1 false)
  %m_data.i38 = getelementptr inbounds i8, ptr %collidables, i64 16
  %1 = load ptr, ptr %m_data.i38, align 8
  %idxprom.i39 = sext i32 %collidableIndexA to i64
  %colA.sroa.1.0.call6.sroa_idx = getelementptr inbounds %struct.b3Collidable, ptr %1, i64 %idxprom.i39, i32 3
  %colA.sroa.1.0.copyload = load i32, ptr %colA.sroa.1.0.call6.sroa_idx, align 4
  %m_data.i41 = getelementptr inbounds i8, ptr %convexShapes, i64 16
  %2 = load ptr, ptr %m_data.i41, align 8
  %idxprom.i42 = sext i32 %colA.sroa.1.0.copyload to i64
  %arrayidx.i43 = getelementptr inbounds %struct.b3ConvexPolyhedronData, ptr %2, i64 %idxprom.i42
  call void @llvm.memcpy.p0.p0.i64(ptr noundef nonnull align 16 dereferenceable(96) %hullA, ptr noundef nonnull align 16 dereferenceable(96) %arrayidx.i43, i64 96, i1 false)
  %idxprom.i45 = sext i32 %collidableIndexB to i64
  %colB.sroa.1.0.call8.sroa_idx = getelementptr inbounds %struct.b3Collidable, ptr %1, i64 %idxprom.i45, i32 3
  %colB.sroa.1.0.copyload = load i32, ptr %colB.sroa.1.0.call8.sroa_idx, align 4
  %idxprom.i48 = sext i32 %colB.sroa.1.0.copyload to i64
  %arrayidx.i49 = getelementptr inbounds %struct.b3ConvexPolyhedronData, ptr %2, i64 %idxprom.i48
  call void @llvm.memcpy.p0.p0.i64(ptr noundef nonnull align 16 dereferenceable(96) %hullB, ptr noundef nonnull align 16 dereferenceable(96) %arrayidx.i49, i64 96, i1 false)
  %call10 = call fastcc noundef zeroext i1 @_ZL18findSeparatingAxisRK22b3ConvexPolyhedronDataS1_RK9b3Vector3RK12b3QuaternionS4_S7_RK20b3AlignedObjectArrayIS2_ESB_RKS8_I9b3GpuFaceERKS8_IiESB_SB_SF_SI_RS2_(ptr noundef nonnull align 16 dereferenceable(96) %hullA, ptr noundef nonnull align 16 dereferenceable(96) %hullB, ptr noundef nonnull align 16 dereferenceable(16) %posA, ptr noundef nonnull align 16 dereferenceable(16) %ornA, ptr noundef nonnull align 16 dereferenceable(16) %posB, ptr noundef nonnull align 16 dereferenceable(16) %ornB, ptr noundef nonnull align 8 dereferenceable(25) %convexVertices, ptr noundef nonnull align 8 dereferenceable(25) %uniqueEdges, ptr noundef nonnull align 8 dereferenceable(25) %faces, ptr noundef nonnull align 8 dereferenceable(25) %convexVertices, ptr noundef nonnull align 8 dereferenceable(25) %uniqueEdges, ptr noundef nonnull align 8 dereferenceable(25) %faces, ptr noundef nonnull align 16 dereferenceable(16) %sepNormalWorldSpace)
  br i1 %call10, label %if.then, label %if.end

if.then:                                          ; preds = %entry
  %call11 = call noundef i32 @_Z18clipHullHullSingleiiRK9b3Vector3RK12b3QuaternionS1_S4_iiPK20b3AlignedObjectArrayI15b3RigidBodyDataEPS5_I10b3Contact4ERiRKS5_I22b3ConvexPolyhedronDataESH_RKS5_IS_ESK_RKS5_I9b3GpuFaceERKS5_IiESK_SK_SO_SR_RKS5_I12b3CollidableESV_S1_i(i32 noundef %bodyIndexA, i32 noundef %bodyIndexB, ptr noundef nonnull align 16 dereferenceable(16) %posA, ptr noundef nonnull align 16 dereferenceable(16) %ornA, ptr noundef nonnull align 16 dereferenceable(16) %posB, ptr noundef nonnull align 16 dereferenceable(16) %ornB, i32 noundef %collidableIndexA, i32 noundef %collidableIndexB, ptr noundef nonnull %rigidBodies, ptr noundef nonnull %globalContactsOut, ptr noundef nonnull align 4 dereferenceable(4) %nGlobalContactsOut, ptr noundef nonnull align 8 dereferenceable(25) %convexShapes, ptr noundef nonnull align 8 dereferenceable(25) %convexShapes, ptr noundef nonnull align 8 dereferenceable(25) %convexVertices, ptr nonnull align 8 poison, ptr noundef nonnull align 8 dereferenceable(25) %faces, ptr noundef nonnull align 8 dereferenceable(25) %convexIndices, ptr noundef nonnull align 8 dereferenceable(25) %convexVertices, ptr nonnull align 8 poison, ptr noundef nonnull align 8 dereferenceable(25) %faces, ptr noundef nonnull align 8 dereferenceable(25) %convexIndices, ptr noundef nonnull align 8 dereferenceable(25) %collidables, ptr noundef nonnull align 8 dereferenceable(25) %collidables, ptr noundef nonnull align 16 dereferenceable(16) %sepNormalWorldSpace, i32 noundef %maxContactCapacity)
  br label %if.end

if.end:                                           ; preds = %if.then, %entry
  %contactIndex.0 = phi i32 [ %call11, %if.then ], [ -1, %entry ]
  ret i32 %contactIndex.0
}